Archive member included because of file (symbol)

/opt/m68k/lib/gcc/m68k-elf/4.6.2/m68000/libgcc.a(_mulsi3.o)
                              BUILD/fat.o (__mulsi3)
/opt/m68k/lib/gcc/m68k-elf/4.6.2/m68000/libgcc.a(_udivsi3.o)
                              BUILD/fat.o (__udivsi3)
/opt/m68k/lib/gcc/m68k-elf/4.6.2/m68000/libgcc.a(_modsi3.o)
                              BUILD/menu.o (__modsi3)
/opt/m68k/lib/gcc/m68k-elf/4.6.2/m68000/libgcc.a(_divsi3.o)
                              /opt/m68k/lib/gcc/m68k-elf/4.6.2/m68000/libgcc.a(_modsi3.o) (__divsi3)
./libc.a(vsnprintf.o)         BUILD/printf.o (vsnprintf)
./libc.a(sprintf.o)           BUILD/fat.o (sprintf)
./libc.a(memcpy.o)            BUILD/fat.o (memcpy)
./libc.a(memcmp.o)            BUILD/menu.o (memcmp)
./libc.a(strcpy.o)            BUILD/fat.o (strcpy)
./libc.a(strcat.o)            BUILD/menu.o (strcat)
./libc.a(strncat.o)           BUILD/menu.o (strncat)
./libc.a(strncmp.o)           BUILD/fat.o (strncmp)
./libc.a(strlen.o)            BUILD/menu.o (strlen)
./libc.a(memset.o)            BUILD/fat.o (memset)
./libc.a(strncpy.o)           BUILD/fat.o (strncpy)
./libc.a(strchr.o)            ./libc.a(strcat.o) (strchr)
/opt/m68k/lib/gcc/m68k-elf/4.6.2/m68000/libgcc.a(_udivdi3.o)
                              ./libc.a(vsnprintf.o) (__udivdi3)
/opt/m68k/lib/gcc/m68k-elf/4.6.2/m68000/libgcc.a(_umoddi3.o)
                              ./libc.a(vsnprintf.o) (__umoddi3)
/opt/m68k/lib/gcc/m68k-elf/4.6.2/m68000/libgcc.a(_umodsi3.o)
                              /opt/m68k/lib/gcc/m68k-elf/4.6.2/m68000/libgcc.a(_udivdi3.o) (__umodsi3)
/opt/m68k/lib/gcc/m68k-elf/4.6.2/m68000/libgcc.a(_clz.o)
                              /opt/m68k/lib/gcc/m68k-elf/4.6.2/m68000/libgcc.a(_udivdi3.o) (__clz_tab)

Memory Configuration

Name             Origin             Length             Attributes
*default*        0x0000000000000000 0xffffffffffffffff

Linker script and memory map

LOAD BUILD/fat.o
LOAD BUILD/fdd.o
LOAD BUILD/fpga.o
LOAD BUILD/hardware.o
LOAD BUILD/hdd.o
LOAD BUILD/main.o
LOAD BUILD/menu.o
LOAD BUILD/mmc.o
LOAD BUILD/osd.o
LOAD BUILD/printf.o
LOAD BUILD/swap.o
LOAD BUILD/config.o
LOAD BUILD/rafile.o
LOAD BUILD/startup.o
LOAD /opt/m68k/lib/gcc/m68k-elf/4.6.2/m68000/libgcc.a
LOAD ./libc.a
LOAD /opt/m68k/lib/gcc/m68k-elf/4.6.2/m68000/libgcc.a
                0x0000000000002000                . = 0x2000

.code           0x0000000000002000    0x10c4c
 BUILD/startup.o(.text)
 .text          0x0000000000002000       0x20 BUILD/startup.o
 *(.text)
 .text          0x0000000000002020     0x254a BUILD/fat.o
                0x0000000000002020                SwapEndianL
                0x0000000000002052                SwapPartitionBytes
                0x0000000000002084                bprintfl
                0x00000000000020b2                FindDrive
                0x000000000000265a                lfn_checksum
                0x0000000000002678                _strnicmp
                0x00000000000026bc                CompareDirEntries
                0x000000000000273a                ChangeDirectory
                0x000000000000274e                GetFATLink
                0x00000000000027e0                ScanDirectory
                0x0000000000003c5c                FileOpen
                0x0000000000003e0c                FileNextSector
                0x0000000000003ebc                FileSeek
                0x0000000000003fce                FileRead
                0x0000000000004022                FileReadEx
                0x00000000000040b0                FileWrite
                0x0000000000004104                FileCreate
                0x0000000000004462                UpdateEntry
 *fill*         0x000000000000456a        0x2 00
 .text          0x000000000000456c      0xf88 BUILD/fdd.o
                0x000000000000456c                SendSector
                0x000000000000480e                SendGap
                0x0000000000004828                ReadTrack
                0x0000000000004b2a                FindSync
                0x0000000000004c22                GetHeader
                0x0000000000004ffa                GetData
                0x00000000000052c2                WriteTrack
                0x0000000000005416                UpdateDriveStatus
                0x0000000000005460                HandleFDD
 .text          0x00000000000054f4      0x8ae BUILD/fpga.o
                0x00000000000054f4                SendFile
                0x0000000000005646                SendFileEncrypted
                0x00000000000057da                BootPrint
                0x0000000000005976                PrepareBootUpload
                0x0000000000005adc                BootExit
                0x0000000000005c12                ClearMemory
                0x0000000000005d68                GetFPGAStatus
 *fill*         0x0000000000005da2        0x2 00
 .text          0x0000000000005da4       0x52 BUILD/hardware.o
                0x0000000000005da4                CheckButton
                0x0000000000005da8                GetTimer
                0x0000000000005db8                CheckTimer
                0x0000000000005dd2                WaitTimer
 *fill*         0x0000000000005df6        0x2 00
 .text          0x0000000000005df8     0x1fac BUILD/hdd.o
                0x0000000000005e6a                IdentifyDevice
                0x00000000000060cc                chs2lba
                0x0000000000006126                WriteTaskFile
                0x00000000000061c8                WriteStatus
                0x0000000000006204                GetHardfileGeometry
                0x0000000000006308                BuildHardfileIndex
                0x0000000000006364                HardFileSeek
                0x00000000000063dc                HandleHDD
                0x0000000000007a3a                OpenHardfile
                0x0000000000007cd2                GetHDFFileType
 .text          0x0000000000007da4      0x1bc BUILD/main.o
                0x0000000000007da4                FatalError
                0x0000000000007e04                HandleFpga
                0x0000000000007e6e                c_entry
 .text          0x0000000000007f60     0x3900 BUILD/menu.o
                0x0000000000007f60                _showdebugmessages
                0x0000000000007fb6                SelectFile
                0x0000000000008026                ShowSplash
                0x00000000000080c8                HideSplash
                0x00000000000080ce                ScrollLongName
                0x000000000000816a                GetDiskInfo
                0x0000000000008250                PrintDirectory
                0x0000000000008446                _strncpy
                0x000000000000846e                InsertFloppy
                0x00000000000085f2                ErrorMessage
                0x000000000000871e                InfoMessage
                0x00000000000087fa                HandleUI
                0x000000000000b816                DebugMessage
 .text          0x000000000000b860      0xa0a BUILD/mmc.o
                0x000000000000b860                MMC_CMD12
                0x000000000000b934                MMC_CRC
                0x000000000000b964                MMC_Command
                0x000000000000ba48                MMC_Write
                0x000000000000bb7a                MMC_ReadMultiple
                0x000000000000bce6                MMC_GetCSD
                0x000000000000bdb6                MMC_GetCapacity
                0x000000000000be50                MMC_Read
                0x000000000000bfa6                MMC_Init
 *fill*         0x000000000000c26a        0x2 00
 .text          0x000000000000c26c     0x194e BUILD/osd.o
                0x000000000000c2aa                framebuffer_clear
                0x000000000000c2d0                framebuffer_plot
                0x000000000000c2fe                StarsInit
                0x000000000000c358                StarsUpdate
                0x000000000000c3ea                OsdSetTitle
                0x000000000000c52a                OsdWriteOffset
                0x000000000000ccb4                OsdWrite
                0x000000000000ccd8                OsdDrawLogo
                0x000000000000d174                OsdWriteDoubleSize
                0x000000000000d4aa                OSD_PrintText
                0x000000000000d6da                OsdClear
                0x000000000000d710                OsdWaitVBL
                0x000000000000d712                OsdEnable
                0x000000000000d738                OsdDisable
                0x000000000000d754                OsdReset
                0x000000000000d77a                OsdReconfig
                0x000000000000d796                ConfigFilter
                0x000000000000d7ce                ConfigMemory
                0x000000000000d828                ConfigCPU
                0x000000000000d84a                ConfigChipset
                0x000000000000d870                ConfigFloppy
                0x000000000000d8a8                ConfigScanlines
                0x000000000000d8ce                ConfigIDE
                0x000000000000d91a                ConfigAutofire
                0x000000000000d940                GetASCIIKey
                0x000000000000d95a                OsdGetCtrl
                0x000000000000da78                ScrollText
                0x000000000000dba0                ScrollReset
 *fill*         0x000000000000dbba        0x2 00
 .text          0x000000000000dbbc       0x78 BUILD/printf.o
                0x000000000000dbbc                printf
                0x000000000000dbfe                putchar
                0x000000000000dc0a                puts
                0x000000000000dc1e                tolower
 .text          0x000000000000dc34       0x1c BUILD/swap.o
                0x000000000000dc34                SwapBBBB
                0x000000000000dc40                SwapBB
                0x000000000000dc48                SwapWW
 .text          0x000000000000dc50      0xbda BUILD/config.o
                0x000000000000dc50                UploadKickstart
                0x000000000000de14                UploadActionReplay
                0x000000000000de8c                SetConfigurationFilename
                0x000000000000dec2                ConfigurationExists
                0x000000000000dee6                ApplyConfiguration
                0x000000000000e4e2                LoadConfiguration
                0x000000000000e6c4                SaveConfiguration
 *fill*         0x000000000000e82a        0x2 00
 .text          0x000000000000e82c      0x170 BUILD/rafile.o
                0x000000000000e82c                RARead
                0x000000000000e900                RASeek
                0x000000000000e96a                RAOpen
 .text          0x000000000000e99c       0x22 /opt/m68k/lib/gcc/m68k-elf/4.6.2/m68000/libgcc.a(_mulsi3.o)
                0x000000000000e99c                __mulsi3
 *fill*         0x000000000000e9be        0x2 00
 .text          0x000000000000e9c0       0x5c /opt/m68k/lib/gcc/m68k-elf/4.6.2/m68000/libgcc.a(_udivsi3.o)
                0x000000000000e9c0                __udivsi3
 .text          0x000000000000ea1c       0x2e /opt/m68k/lib/gcc/m68k-elf/4.6.2/m68000/libgcc.a(_modsi3.o)
                0x000000000000ea1c                __modsi3
 *fill*         0x000000000000ea4a        0x2 00
 .text          0x000000000000ea4c       0x2e /opt/m68k/lib/gcc/m68k-elf/4.6.2/m68000/libgcc.a(_divsi3.o)
                0x000000000000ea4c                __divsi3
 *fill*         0x000000000000ea7a        0x2 00
 .text          0x000000000000ea7c      0x75e ./libc.a(vsnprintf.o)
                0x000000000000ea7c                vsnprintf
 *fill*         0x000000000000f1da        0x2 00
 .text          0x000000000000f1dc       0x22 ./libc.a(sprintf.o)
                0x000000000000f1dc                sprintf
 *fill*         0x000000000000f1fe        0x2 00
 .text          0x000000000000f200       0x20 ./libc.a(memcpy.o)
                0x000000000000f200                memcpy
 .text          0x000000000000f220       0x2e ./libc.a(memcmp.o)
                0x000000000000f220                memcmp
 *fill*         0x000000000000f24e        0x2 00
 .text          0x000000000000f250       0x12 ./libc.a(strcpy.o)
                0x000000000000f250                strcpy
 *fill*         0x000000000000f262        0x2 00
 .text          0x000000000000f264       0x26 ./libc.a(strcat.o)
                0x000000000000f264                strcat
 *fill*         0x000000000000f28a        0x2 00
 .text          0x000000000000f28c       0x38 ./libc.a(strncat.o)
                0x000000000000f28c                strncat
 .text          0x000000000000f2c4       0x34 ./libc.a(strncmp.o)
                0x000000000000f2c4                strncmp
 .text          0x000000000000f2f8       0x14 ./libc.a(strlen.o)
                0x000000000000f2f8                strlen
 .text          0x000000000000f30c       0x1e ./libc.a(memset.o)
                0x000000000000f30c                memset
 *fill*         0x000000000000f32a        0x2 00
 .text          0x000000000000f32c       0x34 ./libc.a(strncpy.o)
                0x000000000000f32c                strncpy
 .text          0x000000000000f360       0x22 ./libc.a(strchr.o)
                0x000000000000f360                strchr
 *fill*         0x000000000000f382        0x2 00
 .text          0x000000000000f384      0x5b0 /opt/m68k/lib/gcc/m68k-elf/4.6.2/m68000/libgcc.a(_udivdi3.o)
                0x000000000000f384                __udivdi3
 .text          0x000000000000f934      0x532 /opt/m68k/lib/gcc/m68k-elf/4.6.2/m68000/libgcc.a(_umoddi3.o)
                0x000000000000f934                __umoddi3
 *fill*         0x000000000000fe66        0x2 00
 .text          0x000000000000fe68       0x2e /opt/m68k/lib/gcc/m68k-elf/4.6.2/m68000/libgcc.a(_umodsi3.o)
                0x000000000000fe68                __umodsi3
 *fill*         0x000000000000fe96        0x2 00
 .text          0x000000000000fe98        0x0 /opt/m68k/lib/gcc/m68k-elf/4.6.2/m68000/libgcc.a(_clz.o)
 *(.rodata)
 .rodata        0x000000000000fe98       0x10 BUILD/hdd.o
 .rodata        0x000000000000fea8       0x13 BUILD/main.o
                0x000000000000fea8                version
 .rodata        0x000000000000febb      0x4ef BUILD/osd.o
                0x000000000000febb                keycode_table
                0x000000000000ff3b                logodata
 .rodata        0x00000000000103aa        0x9 BUILD/config.o
 .rodata        0x00000000000103b3       0x22 ./libc.a(vsnprintf.o)
 .rodata        0x00000000000103d5      0x100 /opt/m68k/lib/gcc/m68k-elf/4.6.2/m68000/libgcc.a(_clz.o)
                0x00000000000103d5                __clz_tab
 *(.rodata.*)
 .rodata.str1.1
                0x00000000000104d5      0x3c0 BUILD/fat.o
                                        0x3c3 (size before relaxing)
 .rodata.str1.1
                0x0000000000010895       0xe5 BUILD/fdd.o
 .rodata.str1.1
                0x000000000001097a       0x20 BUILD/fpga.o
 .rodata.str1.1
                0x000000000001099a      0x2b0 BUILD/hdd.o
                                        0x2c1 (size before relaxing)
 .rodata.str1.1
                0x0000000000010c4a       0xc7 BUILD/main.o
 .rodata.str1.1
                0x0000000000010d11      0xdf0 BUILD/menu.o
                                        0xec5 (size before relaxing)
 .rodata.str1.1
                0x0000000000011b01      0x309 BUILD/mmc.o
 .rodata.str1.1
                0x0000000000011e0a       0x18 BUILD/osd.o
 .rodata.str1.1
                0x0000000000011e22      0x562 BUILD/config.o
                                        0x575 (size before relaxing)
 .rodata.str1.1
                0x0000000000012384        0x7 ./libc.a(vsnprintf.o)
 *(.data)
 *fill*         0x000000000001238b        0x1 00
 .data          0x000000000001238c        0x0 BUILD/fat.o
 .data          0x000000000001238c        0x0 BUILD/fdd.o
 .data          0x000000000001238c        0x0 BUILD/fpga.o
 .data          0x000000000001238c        0x0 BUILD/hardware.o
 .data          0x000000000001238c        0x0 BUILD/hdd.o
 .data          0x000000000001238c        0x0 BUILD/main.o
 .data          0x000000000001238c       0xbe BUILD/menu.o
                0x000000000001238c                helptexts
                0x00000000000123a8                config_autofire_msg
                0x00000000000123b8                config_chipset_msg
                0x00000000000123c8                config_hdf_msg
                0x00000000000123e4                config_cpu_msg
                0x00000000000123f4                config_memory_fast_msg
                0x0000000000012404                config_scanlines_msg
                0x0000000000012410                config_memory_slow_msg
                0x0000000000012420                config_memory_chip_msg
                0x0000000000012430                config_filter_msg
 *fill*         0x000000000001244a        0x2 00
 .data          0x000000000001244c        0x0 BUILD/mmc.o
 .data          0x000000000001244c      0x800 BUILD/osd.o
                0x000000000001244c                charfont
 .data          0x0000000000012c4c        0x0 BUILD/printf.o
 .data          0x0000000000012c4c        0x0 BUILD/swap.o
 .data          0x0000000000012c4c        0x0 BUILD/config.o
 .data          0x0000000000012c4c        0x0 BUILD/rafile.o
 .data          0x0000000000012c4c        0x0 BUILD/startup.o
 .data          0x0000000000012c4c        0x0 /opt/m68k/lib/gcc/m68k-elf/4.6.2/m68000/libgcc.a(_mulsi3.o)
 .data          0x0000000000012c4c        0x0 /opt/m68k/lib/gcc/m68k-elf/4.6.2/m68000/libgcc.a(_udivsi3.o)
 .data          0x0000000000012c4c        0x0 /opt/m68k/lib/gcc/m68k-elf/4.6.2/m68000/libgcc.a(_modsi3.o)
 .data          0x0000000000012c4c        0x0 /opt/m68k/lib/gcc/m68k-elf/4.6.2/m68000/libgcc.a(_divsi3.o)
 .data          0x0000000000012c4c        0x0 ./libc.a(vsnprintf.o)
 .data          0x0000000000012c4c        0x0 ./libc.a(sprintf.o)
 .data          0x0000000000012c4c        0x0 ./libc.a(memcpy.o)
 .data          0x0000000000012c4c        0x0 ./libc.a(memcmp.o)
 .data          0x0000000000012c4c        0x0 ./libc.a(strcpy.o)
 .data          0x0000000000012c4c        0x0 ./libc.a(strcat.o)
 .data          0x0000000000012c4c        0x0 ./libc.a(strncat.o)
 .data          0x0000000000012c4c        0x0 ./libc.a(strncmp.o)
 .data          0x0000000000012c4c        0x0 ./libc.a(strlen.o)
 .data          0x0000000000012c4c        0x0 ./libc.a(memset.o)
 .data          0x0000000000012c4c        0x0 ./libc.a(strncpy.o)
 .data          0x0000000000012c4c        0x0 ./libc.a(strchr.o)
 .data          0x0000000000012c4c        0x0 /opt/m68k/lib/gcc/m68k-elf/4.6.2/m68000/libgcc.a(_udivdi3.o)
 .data          0x0000000000012c4c        0x0 /opt/m68k/lib/gcc/m68k-elf/4.6.2/m68000/libgcc.a(_umoddi3.o)
 .data          0x0000000000012c4c        0x0 /opt/m68k/lib/gcc/m68k-elf/4.6.2/m68000/libgcc.a(_umodsi3.o)
 .data          0x0000000000012c4c        0x0 /opt/m68k/lib/gcc/m68k-elf/4.6.2/m68000/libgcc.a(_clz.o)

.extra          0x0000000000012c4c     0x68c0
                0x0000000000012c4c                __s_bss = .
 *(.bss)
 .bss           0x0000000000012c4c     0x19e1 BUILD/fat.o
                0x0000000000012c4c                t_sort_table
                0x0000000000012c54                t_DirEntry
                0x0000000000012d54                t_DirEntryLFN
                0x000000000001357c                iPreviousDirectory
                0x0000000000013580                iCurrentDirectory
                0x0000000000013584                iSelectedEntry
                0x0000000000013585                nDirEntries
                0x0000000000013586                sort_table
                0x000000000001358e                DirEntry
                0x000000000001368e                DirEntryLFN
                0x0000000000013eb6                buffered_fat_index
                0x0000000000013eba                fat_buffer
                0x00000000000140ba                partitioncount
                0x00000000000140be                partitions
                0x00000000000140fe                sector_buffer
                0x00000000000144fe                fat_size
                0x0000000000014502                dir_entries
                0x0000000000014504                cluster_mask
                0x0000000000014508                cluster_size
                0x0000000000014509                fat_number
                0x000000000001450a                root_directory_size
                0x000000000001450e                root_directory_start
                0x0000000000014512                root_directory_cluster
                0x0000000000014516                data_start
                0x000000000001451a                fat_start
                0x000000000001451e                boot_sector
                0x0000000000014522                fat32
                0x0000000000014523                fattype
                0x0000000000014524                entries_per_cluster
                0x0000000000014526                directory_cluster
 *fill*         0x000000000001462d        0x3 00
 .bss           0x0000000000014630      0xae6 BUILD/fdd.o
                0x0000000000014630                df
                0x0000000000015110                pdfx
                0x0000000000015114                drives
                0x0000000000015115                DEBUG
 *fill*         0x0000000000015116        0x2 00
 .bss           0x0000000000015118        0x0 BUILD/fpga.o
 .bss           0x0000000000015118        0x0 BUILD/hardware.o
 .bss           0x0000000000015118     0x23fa BUILD/hdd.o
                0x0000000000015118                rdbfile
                0x0000000000015242                debugmsg2
                0x000000000001526a                debugmsg
                0x0000000000015292                hdf
 *fill*         0x0000000000017512        0x2 00
 .bss           0x0000000000017514       0x29 BUILD/main.o
                0x0000000000017514                s
                0x000000000001753c                Error
 *fill*         0x000000000001753d        0x3 00
 .bss           0x0000000000017540      0x186 BUILD/menu.o
                0x0000000000017540                fs_MenuCancel
                0x0000000000017541                fs_MenuSelect
                0x0000000000017542                fs_Options
                0x0000000000017544                fs_pFileExt
                0x0000000000017548                config_autofire
                0x0000000000017549                DiskInfo
                0x000000000001754e                DirEntryInfo
                0x0000000000017576                menu_timer
                0x000000000001757a                menumask
                0x000000000001757e                menusub
                0x000000000001757f                parentstate
                0x0000000000017580                menustate
 *fill*         0x00000000000176c6        0x2 00
 .bss           0x00000000000176c8       0x17 BUILD/mmc.o
                0x00000000000176c8                CSDData
                0x00000000000176d8                CardType
                0x00000000000176d9                response
                0x00000000000176da                timeout
                0x00000000000176de                crc
 *fill*         0x00000000000176df        0x1 00
 .bss           0x00000000000176e0      0xc5c BUILD/osd.o
                0x00000000000176e0                framebuffer
                0x0000000000017ee0                stars
 .bss           0x000000000001833c      0x100 BUILD/printf.o
                0x000000000001833c                buf
 .bss           0x000000000001843c        0x0 BUILD/swap.o
 .bss           0x000000000001843c     0x10ce BUILD/config.o
                0x000000000001843c                romfile
                0x000000000001876e                romkey
                0x000000000001936e                DebugMode
                0x000000000001936f                configfilename
                0x000000000001937c                file
                0x00000000000194a6                config
 *fill*         0x000000000001950a        0x2 00
 .bss           0x000000000001950c        0x0 BUILD/rafile.o
 .bss           0x000000000001950c        0x0 BUILD/startup.o
 .bss           0x000000000001950c        0x0 /opt/m68k/lib/gcc/m68k-elf/4.6.2/m68000/libgcc.a(_mulsi3.o)
 .bss           0x000000000001950c        0x0 /opt/m68k/lib/gcc/m68k-elf/4.6.2/m68000/libgcc.a(_udivsi3.o)
 .bss           0x000000000001950c        0x0 /opt/m68k/lib/gcc/m68k-elf/4.6.2/m68000/libgcc.a(_modsi3.o)
 .bss           0x000000000001950c        0x0 /opt/m68k/lib/gcc/m68k-elf/4.6.2/m68000/libgcc.a(_divsi3.o)
 .bss           0x000000000001950c        0x0 ./libc.a(vsnprintf.o)
 .bss           0x000000000001950c        0x0 ./libc.a(sprintf.o)
 .bss           0x000000000001950c        0x0 ./libc.a(memcpy.o)
 .bss           0x000000000001950c        0x0 ./libc.a(memcmp.o)
 .bss           0x000000000001950c        0x0 ./libc.a(strcpy.o)
 .bss           0x000000000001950c        0x0 ./libc.a(strcat.o)
 .bss           0x000000000001950c        0x0 ./libc.a(strncat.o)
 .bss           0x000000000001950c        0x0 ./libc.a(strncmp.o)
 .bss           0x000000000001950c        0x0 ./libc.a(strlen.o)
 .bss           0x000000000001950c        0x0 ./libc.a(memset.o)
 .bss           0x000000000001950c        0x0 ./libc.a(strncpy.o)
 .bss           0x000000000001950c        0x0 ./libc.a(strchr.o)
 .bss           0x000000000001950c        0x0 /opt/m68k/lib/gcc/m68k-elf/4.6.2/m68000/libgcc.a(_udivdi3.o)
 .bss           0x000000000001950c        0x0 /opt/m68k/lib/gcc/m68k-elf/4.6.2/m68000/libgcc.a(_umoddi3.o)
 .bss           0x000000000001950c        0x0 /opt/m68k/lib/gcc/m68k-elf/4.6.2/m68000/libgcc.a(_umodsi3.o)
 .bss           0x000000000001950c        0x0 /opt/m68k/lib/gcc/m68k-elf/4.6.2/m68000/libgcc.a(_clz.o)
                0x000000000001950c                __e_bss = .

.eh_frame       0x000000000001950c      0x22c
 *(.eh_frame)
 .eh_frame      0x000000000001950c      0x128 /opt/m68k/lib/gcc/m68k-elf/4.6.2/m68000/libgcc.a(_udivdi3.o)
 .eh_frame      0x0000000000019634      0x104 /opt/m68k/lib/gcc/m68k-elf/4.6.2/m68000/libgcc.a(_umoddi3.o)
                                        0x11c (size before relaxing)
                0x0000000000019738                heap_low = .
                0x000000000001a738                . = (. + 0x1000)
                0x000000000001a738                heap_top = .
                0x0000000000001000                stack_top = 0x1000
OUTPUT(menu.elf elf32-m68k)

.comment        0x0000000000000000       0x11
 .comment       0x0000000000000000       0x11 BUILD/fat.o
                                         0x12 (size before relaxing)
 .comment       0x0000000000000000       0x12 BUILD/fdd.o
 .comment       0x0000000000000000       0x12 BUILD/fpga.o
 .comment       0x0000000000000000       0x12 BUILD/hardware.o
 .comment       0x0000000000000000       0x12 BUILD/hdd.o
 .comment       0x0000000000000000       0x12 BUILD/main.o
 .comment       0x0000000000000000       0x12 BUILD/menu.o
 .comment       0x0000000000000000       0x12 BUILD/mmc.o
 .comment       0x0000000000000000       0x12 BUILD/osd.o
 .comment       0x0000000000000000       0x12 BUILD/printf.o
 .comment       0x0000000000000000       0x12 BUILD/swap.o
 .comment       0x0000000000000000       0x12 BUILD/config.o
 .comment       0x0000000000000000       0x12 BUILD/rafile.o
 .comment       0x0000000000000000       0x12 ./libc.a(vsnprintf.o)
 .comment       0x0000000000000000       0x12 ./libc.a(sprintf.o)
 .comment       0x0000000000000000       0x12 ./libc.a(memcpy.o)
 .comment       0x0000000000000000       0x12 ./libc.a(memcmp.o)
 .comment       0x0000000000000000       0x12 ./libc.a(strcpy.o)
 .comment       0x0000000000000000       0x12 ./libc.a(strcat.o)
 .comment       0x0000000000000000       0x12 ./libc.a(strncat.o)
 .comment       0x0000000000000000       0x12 ./libc.a(strncmp.o)
 .comment       0x0000000000000000       0x12 ./libc.a(strlen.o)
 .comment       0x0000000000000000       0x12 ./libc.a(memset.o)
 .comment       0x0000000000000000       0x12 ./libc.a(strncpy.o)
 .comment       0x0000000000000000       0x12 ./libc.a(strchr.o)
 .comment       0x0000000000000000       0x12 /opt/m68k/lib/gcc/m68k-elf/4.6.2/m68000/libgcc.a(_udivdi3.o)
 .comment       0x0000000000000000       0x12 /opt/m68k/lib/gcc/m68k-elf/4.6.2/m68000/libgcc.a(_umoddi3.o)
 .comment       0x0000000000000000       0x12 /opt/m68k/lib/gcc/m68k-elf/4.6.2/m68000/libgcc.a(_clz.o)

.debug_line     0x0000000000000000      0x4c6
 .debug_line    0x0000000000000000       0x6c /opt/m68k/lib/gcc/m68k-elf/4.6.2/m68000/libgcc.a(_mulsi3.o)
 .debug_line    0x000000000000006c       0x85 /opt/m68k/lib/gcc/m68k-elf/4.6.2/m68000/libgcc.a(_udivsi3.o)
 .debug_line    0x00000000000000f1       0x70 /opt/m68k/lib/gcc/m68k-elf/4.6.2/m68000/libgcc.a(_modsi3.o)
 .debug_line    0x0000000000000161       0x74 /opt/m68k/lib/gcc/m68k-elf/4.6.2/m68000/libgcc.a(_divsi3.o)
 .debug_line    0x00000000000001d5      0x125 /opt/m68k/lib/gcc/m68k-elf/4.6.2/m68000/libgcc.a(_udivdi3.o)
 .debug_line    0x00000000000002fa      0x10b /opt/m68k/lib/gcc/m68k-elf/4.6.2/m68000/libgcc.a(_umoddi3.o)
 .debug_line    0x0000000000000405       0x70 /opt/m68k/lib/gcc/m68k-elf/4.6.2/m68000/libgcc.a(_umodsi3.o)
 .debug_line    0x0000000000000475       0x51 /opt/m68k/lib/gcc/m68k-elf/4.6.2/m68000/libgcc.a(_clz.o)

.debug_info     0x0000000000000000     0x1098
 .debug_info    0x0000000000000000       0x9f /opt/m68k/lib/gcc/m68k-elf/4.6.2/m68000/libgcc.a(_mulsi3.o)
 .debug_info    0x000000000000009f       0x9f /opt/m68k/lib/gcc/m68k-elf/4.6.2/m68000/libgcc.a(_udivsi3.o)
 .debug_info    0x000000000000013e       0x9f /opt/m68k/lib/gcc/m68k-elf/4.6.2/m68000/libgcc.a(_modsi3.o)
 .debug_info    0x00000000000001dd       0x9f /opt/m68k/lib/gcc/m68k-elf/4.6.2/m68000/libgcc.a(_divsi3.o)
 .debug_info    0x000000000000027c      0x654 /opt/m68k/lib/gcc/m68k-elf/4.6.2/m68000/libgcc.a(_udivdi3.o)
 .debug_info    0x00000000000008d0      0x660 /opt/m68k/lib/gcc/m68k-elf/4.6.2/m68000/libgcc.a(_umoddi3.o)
 .debug_info    0x0000000000000f30       0x9f /opt/m68k/lib/gcc/m68k-elf/4.6.2/m68000/libgcc.a(_umodsi3.o)
 .debug_info    0x0000000000000fcf       0xc9 /opt/m68k/lib/gcc/m68k-elf/4.6.2/m68000/libgcc.a(_clz.o)

.debug_abbrev   0x0000000000000000      0x3e9
 .debug_abbrev  0x0000000000000000       0x14 /opt/m68k/lib/gcc/m68k-elf/4.6.2/m68000/libgcc.a(_mulsi3.o)
 .debug_abbrev  0x0000000000000014       0x14 /opt/m68k/lib/gcc/m68k-elf/4.6.2/m68000/libgcc.a(_udivsi3.o)
 .debug_abbrev  0x0000000000000028       0x14 /opt/m68k/lib/gcc/m68k-elf/4.6.2/m68000/libgcc.a(_modsi3.o)
 .debug_abbrev  0x000000000000003c       0x14 /opt/m68k/lib/gcc/m68k-elf/4.6.2/m68000/libgcc.a(_divsi3.o)
 .debug_abbrev  0x0000000000000050      0x185 /opt/m68k/lib/gcc/m68k-elf/4.6.2/m68000/libgcc.a(_udivdi3.o)
 .debug_abbrev  0x00000000000001d5      0x19f /opt/m68k/lib/gcc/m68k-elf/4.6.2/m68000/libgcc.a(_umoddi3.o)
 .debug_abbrev  0x0000000000000374       0x14 /opt/m68k/lib/gcc/m68k-elf/4.6.2/m68000/libgcc.a(_umodsi3.o)
 .debug_abbrev  0x0000000000000388       0x61 /opt/m68k/lib/gcc/m68k-elf/4.6.2/m68000/libgcc.a(_clz.o)

.debug_aranges  0x0000000000000000       0xe0
 .debug_aranges
                0x0000000000000000       0x20 /opt/m68k/lib/gcc/m68k-elf/4.6.2/m68000/libgcc.a(_mulsi3.o)
 .debug_aranges
                0x0000000000000020       0x20 /opt/m68k/lib/gcc/m68k-elf/4.6.2/m68000/libgcc.a(_udivsi3.o)
 .debug_aranges
                0x0000000000000040       0x20 /opt/m68k/lib/gcc/m68k-elf/4.6.2/m68000/libgcc.a(_modsi3.o)
 .debug_aranges
                0x0000000000000060       0x20 /opt/m68k/lib/gcc/m68k-elf/4.6.2/m68000/libgcc.a(_divsi3.o)
 .debug_aranges
                0x0000000000000080       0x20 /opt/m68k/lib/gcc/m68k-elf/4.6.2/m68000/libgcc.a(_udivdi3.o)
 .debug_aranges
                0x00000000000000a0       0x20 /opt/m68k/lib/gcc/m68k-elf/4.6.2/m68000/libgcc.a(_umoddi3.o)
 .debug_aranges
                0x00000000000000c0       0x20 /opt/m68k/lib/gcc/m68k-elf/4.6.2/m68000/libgcc.a(_umodsi3.o)

.debug_loc      0x0000000000000000     0x160d
 .debug_loc     0x0000000000000000      0xbd7 /opt/m68k/lib/gcc/m68k-elf/4.6.2/m68000/libgcc.a(_udivdi3.o)
 .debug_loc     0x0000000000000bd7      0xa36 /opt/m68k/lib/gcc/m68k-elf/4.6.2/m68000/libgcc.a(_umoddi3.o)

.debug_ranges   0x0000000000000000      0x298
 .debug_ranges  0x0000000000000000      0x178 /opt/m68k/lib/gcc/m68k-elf/4.6.2/m68000/libgcc.a(_udivdi3.o)
 .debug_ranges  0x0000000000000178      0x120 /opt/m68k/lib/gcc/m68k-elf/4.6.2/m68000/libgcc.a(_umoddi3.o)

.debug_str      0x0000000000000000      0x174
 .debug_str     0x0000000000000000      0x16a /opt/m68k/lib/gcc/m68k-elf/4.6.2/m68000/libgcc.a(_udivdi3.o)
                                        0x1c5 (size before relaxing)
 .debug_str     0x000000000000016a        0xa /opt/m68k/lib/gcc/m68k-elf/4.6.2/m68000/libgcc.a(_umoddi3.o)
                                        0x1c5 (size before relaxing)
 .debug_str     0x0000000000000000      0x157 /opt/m68k/lib/gcc/m68k-elf/4.6.2/m68000/libgcc.a(_clz.o)
